
hello.elf:     file format elf32-littleriscv


Disassembly of section .text:

00000000 <_start>:
   0:	00002537          	lui	a0,0x2
   4:	71050513          	addi	a0,a0,1808 # 2710 <array+0x2698>
   8:	00050113          	mv	sp,a0
   c:	008000ef          	jal	14 <notmain>

00000010 <hang>:
  10:	0000006f          	j	10 <hang>

00000014 <notmain>:
  14:	03100793          	li	a5,49
  18:	06300613          	li	a2,99
  1c:	00000693          	li	a3,0
  20:	07800593          	li	a1,120
  24:	55000513          	li	a0,1360
  28:	55100813          	li	a6,1361
  2c:	01c0006f          	j	48 <notmain+0x34>
  30:	00178693          	addi	a3,a5,1
  34:	00c68733          	add	a4,a3,a2
  38:	01f75793          	srli	a5,a4,0x1f
  3c:	00e787b3          	add	a5,a5,a4
  40:	4017d793          	srai	a5,a5,0x1
  44:	02d64863          	blt	a2,a3,74 <notmain+0x60>
  48:	00279713          	slli	a4,a5,0x2
  4c:	00e58733          	add	a4,a1,a4
  50:	00072703          	lw	a4,0(a4)
  54:	fce55ee3          	ble	a4,a0,30 <notmain+0x1c>
  58:	01070e63          	beq	a4,a6,74 <notmain+0x60>
  5c:	fff78613          	addi	a2,a5,-1
  60:	00c68733          	add	a4,a3,a2
  64:	01f75793          	srli	a5,a4,0x1f
  68:	00e787b3          	add	a5,a5,a4
  6c:	4017d793          	srai	a5,a5,0x1
  70:	fcd65ce3          	ble	a3,a2,48 <notmain+0x34>
  74:	00008067          	ret
