
hello.elf:     file format elf32-littleriscv


Disassembly of section .text:

00000000 <_start>:
   0:	00002537          	lui	a0,0x2
   4:	71050513          	addi	a0,a0,1808 # 2710 <array+0x2678>
   8:	00050113          	mv	sp,a0
   c:	080000ef          	jal	8c <notmain>

00000010 <hang>:
  10:	0000006f          	j	10 <hang>

00000014 <insertionSort>:
  14:	00100793          	li	a5,1
  18:	00450313          	addi	t1,a0,4
  1c:	fff58e13          	addi	t3,a1,-1
  20:	00000893          	li	a7,0
  24:	fff00813          	li	a6,-1
  28:	04b7dc63          	ble	a1,a5,80 <insertionSort+0x6c>
  2c:	00032603          	lw	a2,0(t1)
  30:	00088713          	mv	a4,a7
  34:	0208c863          	bltz	a7,64 <insertionSort+0x50>
  38:	ffc32683          	lw	a3,-4(t1)
  3c:	04d65463          	ble	a3,a2,84 <insertionSort+0x70>
  40:	00030793          	mv	a5,t1
  44:	00c0006f          	j	50 <insertionSort+0x3c>
  48:	ffc7a683          	lw	a3,-4(a5)
  4c:	00d65c63          	ble	a3,a2,64 <insertionSort+0x50>
  50:	ffc78793          	addi	a5,a5,-4
  54:	00d7a223          	sw	a3,4(a5)
  58:	fff70713          	addi	a4,a4,-1
  5c:	ff0716e3          	bne	a4,a6,48 <insertionSort+0x34>
  60:	00080713          	mv	a4,a6
  64:	00170793          	addi	a5,a4,1
  68:	00279793          	slli	a5,a5,0x2
  6c:	00f507b3          	add	a5,a0,a5
  70:	00c7a023          	sw	a2,0(a5)
  74:	00188893          	addi	a7,a7,1
  78:	00430313          	addi	t1,t1,4
  7c:	fbc898e3          	bne	a7,t3,2c <insertionSort+0x18>
  80:	00008067          	ret
  84:	00088713          	mv	a4,a7
  88:	fddff06f          	j	64 <insertionSort+0x50>

0000008c <notmain>:
  8c:	06400593          	li	a1,100
  90:	09800513          	li	a0,152
  94:	f81ff06f          	j	14 <insertionSort>
